target datalayout = "e-m:e-p270:32:32-p271:32:32-p272:64:64-i64:64-i128:128-f80:128-n8:16:32:64-S128"
target triple = "x86_64-pc-linux-gnu"

%struct.StringInfoData = type { ptr, i32, i32, i32 }
%union.ListCell = type { ptr }
%struct.nameData = type { [64 x i8] }
%struct.oidvector = type { i32, i32, i32, i32, i32, i32, [0 x i32] }
%struct.HeapTupleData = type { i32, %struct.ItemPointerData, i32, ptr }
%struct.ItemPointerData = type { %struct.BlockIdData, i16 }
%struct.BlockIdData = type { i16, i16 }
%struct.HeapTupleHeaderData = type { %union.anon, %struct.ItemPointerData, i16, i16, i8, [0 x i8] }
%union.anon = type { %struct.HeapTupleFields }
%struct.HeapTupleFields = type { i32, i32, %union.anon.1 }
%union.anon.1 = type { i32 }
%struct.FormData_pg_proc = type { i32, %struct.nameData, i32, i32, i32, float, float, i32, i32, i8, i8, i8, i8, i8, i8, i8, i16, i16, i32, %struct.oidvector }

@.str.2 = private unnamed_addr constant [12 x i8] c"ruleutils.c\00", align 1
@.str.27 = private unnamed_addr constant [4 x i8] c"%s.\00", align 1
@.str.539 = private unnamed_addr constant [36 x i8] c"cache lookup failed for function %u\00", align 1
@__func__.generate_function_name = private unnamed_addr constant [23 x i8] c"generate_function_name\00", align 1
@.str.540 = private unnamed_addr constant [5 x i8] c"cube\00", align 1
@.str.541 = private unnamed_addr constant [7 x i8] c"rollup\00", align 1

; Function Attrs: nounwind uwtable
define dso_local ptr @quote_qualified_identifier(ptr noundef %0, ptr noundef %1) #0 {
  %3 = alloca ptr, align 8
  %4 = alloca ptr, align 8
  %5 = alloca %struct.StringInfoData, align 8
  store ptr %0, ptr %3, align 8
  store ptr %1, ptr %4, align 8
  call void @llvm.lifetime.start.p0(i64 24, ptr %5) #10
  call void @initStringInfo(ptr noundef %5)
  %6 = load ptr, ptr %3, align 8
  %7 = icmp ne ptr %6, null
  br i1 %7, label %8, label %11

8:                                                ; preds = %2
  %9 = load ptr, ptr %3, align 8
  %10 = call ptr @quote_identifier(ptr noundef %9)
  call void (ptr, ptr, ...) @appendStringInfo(ptr noundef %5, ptr noundef @.str.27, ptr noundef %10)
  br label %11

11:                                               ; preds = %8, %2
  %12 = load ptr, ptr %4, align 8
  %13 = call ptr @quote_identifier(ptr noundef %12)
  call void @appendStringInfoString(ptr noundef %5, ptr noundef %13)
  %14 = getelementptr inbounds nuw %struct.StringInfoData, ptr %5, i32 0, i32 0
  %15 = load ptr, ptr %14, align 8
  call void @llvm.lifetime.end.p0(i64 24, ptr %5) #10
  ret ptr %15
}

; Function Attrs: inlinehint nounwind uwtable
define internal ptr @GETSTRUCT(ptr noundef %0) #2 {
  %2 = alloca ptr, align 8
  store ptr %0, ptr %2, align 8
  %3 = load ptr, ptr %2, align 8
  %4 = getelementptr inbounds nuw %struct.HeapTupleData, ptr %3, i32 0, i32 3
  %5 = load ptr, ptr %4, align 8
  %6 = load ptr, ptr %2, align 8
  %7 = getelementptr inbounds nuw %struct.HeapTupleData, ptr %6, i32 0, i32 3
  %8 = load ptr, ptr %7, align 8
  %9 = getelementptr inbounds nuw %struct.HeapTupleHeaderData, ptr %8, i32 0, i32 4
  %10 = load i8, ptr %9, align 2
  %11 = zext i8 %10 to i32
  %12 = sext i32 %11 to i64
  %13 = getelementptr inbounds i8, ptr %5, i64 %12
  ret ptr %13
}

; Function Attrs: inlinehint nounwind uwtable
define internal i64 @ObjectIdGetDatum(i32 noundef %0) #2 {
  %2 = alloca i32, align 4
  store i32 %0, ptr %2, align 4
  %3 = load i32, ptr %2, align 4
  %4 = zext i32 %3 to i64
  ret i64 %4
}

; Function Attrs: nounwind uwtable
define internal ptr @generate_function_name(i32 noundef %0, i32 noundef %1, ptr noundef %2, ptr noundef %3, i1 noundef zeroext %4, ptr noundef %5, i1 noundef zeroext %6) #0 {
  %8 = alloca i32, align 4
  %9 = alloca i32, align 4
  %10 = alloca ptr, align 8
  %11 = alloca ptr, align 8
  %12 = alloca i8, align 1
  %13 = alloca ptr, align 8
  %14 = alloca i8, align 1
  %15 = alloca ptr, align 8
  %16 = alloca ptr, align 8
  %17 = alloca ptr, align 8
  %18 = alloca ptr, align 8
  %19 = alloca i8, align 1
  %20 = alloca ptr, align 8
  %21 = alloca i32, align 4
  %22 = alloca i32, align 4
  %23 = alloca i32, align 4
  %24 = alloca i8, align 1
  %25 = alloca i32, align 4
  %26 = alloca i32, align 4
  %27 = alloca ptr, align 8
  %28 = alloca i8, align 1
  %29 = alloca %union.ListCell, align 8
  store i32 %0, ptr %8, align 4
  store i32 %1, ptr %9, align 4
  store ptr %2, ptr %10, align 8
  store ptr %3, ptr %11, align 8
  %30 = zext i1 %4 to i8
  store i8 %30, ptr %12, align 1
  store ptr %5, ptr %13, align 8
  %31 = zext i1 %6 to i8
  store i8 %31, ptr %14, align 1
  call void @llvm.lifetime.start.p0(i64 8, ptr %15) #10
  call void @llvm.lifetime.start.p0(i64 8, ptr %16) #10
  call void @llvm.lifetime.start.p0(i64 8, ptr %17) #10
  call void @llvm.lifetime.start.p0(i64 8, ptr %18) #10
  call void @llvm.lifetime.start.p0(i64 1, ptr %19) #10
  call void @llvm.lifetime.start.p0(i64 8, ptr %20) #10
  call void @llvm.lifetime.start.p0(i64 4, ptr %21) #10
  call void @llvm.lifetime.start.p0(i64 4, ptr %22) #10
  call void @llvm.lifetime.start.p0(i64 4, ptr %23) #10
  call void @llvm.lifetime.start.p0(i64 1, ptr %24) #10
  call void @llvm.lifetime.start.p0(i64 4, ptr %25) #10
  call void @llvm.lifetime.start.p0(i64 4, ptr %26) #10
  call void @llvm.lifetime.start.p0(i64 8, ptr %27) #10
  call void @llvm.lifetime.start.p0(i64 1, ptr %28) #10
  store i8 0, ptr %28, align 1
  %32 = load i32, ptr %8, align 4
  %33 = call i64 @ObjectIdGetDatum(i32 noundef %32)
  %34 = call ptr @SearchSysCache1(i32 noundef 47, i64 noundef %33)
  store ptr %34, ptr %16, align 8
  %35 = load ptr, ptr %16, align 8
  %36 = icmp ne ptr %35, null
  br i1 %36, label %49, label %37

37:                                               ; preds = %7
  br label %38

38:                                               ; preds = %37
  br i1 true, label %39, label %41

39:                                               ; preds = %38
  %40 = call zeroext i1 @errstart_cold(i32 noundef 21, ptr noundef null) #11
  br i1 %40, label %43, label %46

41:                                               ; preds = %38
  %42 = call zeroext i1 @errstart(i32 noundef 21, ptr noundef null)
  br i1 %42, label %43, label %46

43:                                               ; preds = %41, %39
  %44 = load i32, ptr %8, align 4
  %45 = call i32 (ptr, ...) @errmsg_internal(ptr noundef @.str.539, i32 noundef %44)
  call void @errfinish(ptr noundef @.str.2, i32 noundef 13189, ptr noundef @__func__.generate_function_name)
  br label %46

46:                                               ; preds = %43, %41, %39
  unreachable

47:                                               ; No predecessors!
  br label %48

48:                                               ; preds = %47
  br label %49

49:                                               ; preds = %48, %7
  %50 = load ptr, ptr %16, align 8
  %51 = call ptr @GETSTRUCT(ptr noundef %50)
  store ptr %51, ptr %17, align 8
  %52 = load ptr, ptr %17, align 8
  %53 = getelementptr inbounds nuw %struct.FormData_pg_proc, ptr %52, i32 0, i32 1
  %54 = getelementptr inbounds nuw %struct.nameData, ptr %53, i32 0, i32 0
  %55 = getelementptr inbounds [64 x i8], ptr %54, i64 0, i64 0
  store ptr %55, ptr %18, align 8
  %56 = load i8, ptr %14, align 1, !range !4, !noundef !5
  %57 = trunc i8 %56 to i1
  br i1 %57, label %58, label %68

58:                                               ; preds = %49
  %59 = load ptr, ptr %18, align 8
  %60 = call i32 @strcmp(ptr noundef %59, ptr noundef @.str.540) #12
  %61 = icmp eq i32 %60, 0
  br i1 %61, label %66, label %62

62:                                               ; preds = %58
  %63 = load ptr, ptr %18, align 8
  %64 = call i32 @strcmp(ptr noundef %63, ptr noundef @.str.541) #12
  %65 = icmp eq i32 %64, 0
  br i1 %65, label %66, label %67

66:                                               ; preds = %62, %58
  store i8 1, ptr %28, align 1
  br label %67

67:                                               ; preds = %66, %62
  br label %68

68:                                               ; preds = %67, %49
  %69 = load ptr, ptr %13, align 8
  %70 = icmp ne ptr %69, null
  br i1 %70, label %71, label %79

71:                                               ; preds = %68
  %72 = load i8, ptr %12, align 1, !range !4, !noundef !5
  %73 = trunc i8 %72 to i1
  %74 = zext i1 %73 to i8
  store i8 %74, ptr %19, align 1
  %75 = load i8, ptr %19, align 1, !range !4, !noundef !5
  %76 = trunc i8 %75 to i1
  %77 = load ptr, ptr %13, align 8
  %78 = zext i1 %76 to i8
  store i8 %78, ptr %77, align 1
  br label %80

79:                                               ; preds = %68
  store i8 0, ptr %19, align 1
  br label %80

80:                                               ; preds = %79, %71
  %81 = load i8, ptr %28, align 1, !range !4, !noundef !5
  %82 = trunc i8 %81 to i1
  br i1 %82, label %96, label %83

83:                                               ; preds = %80
  %84 = load ptr, ptr %18, align 8
  %85 = call ptr @makeString(ptr noundef %84)
  store ptr %85, ptr %29, align 8
  %86 = getelementptr inbounds nuw %union.ListCell, ptr %29, i32 0, i32 0
  %87 = load ptr, ptr %86, align 8
  %88 = call ptr @list_make1_impl(i32 noundef 1, ptr %87)
  %89 = load ptr, ptr %10, align 8
  %90 = load i32, ptr %9, align 4
  %91 = load ptr, ptr %11, align 8
  %92 = load i8, ptr %19, align 1, !range !4, !noundef !5
  %93 = trunc i8 %92 to i1
  %94 = xor i1 %93, true
  %95 = call i32 @func_get_detail(ptr noundef %88, ptr noundef null, ptr noundef %89, i32 noundef %90, ptr noundef %91, i1 noundef zeroext %94, i1 noundef zeroext true, i1 noundef zeroext false, ptr noundef %22, ptr noundef %23, ptr noundef %24, ptr noundef %25, ptr noundef %26, ptr noundef %27, ptr noundef null)
  store i32 %95, ptr %21, align 4
  br label %97

96:                                               ; preds = %80
  store i32 0, ptr %21, align 4
  store i32 0, ptr %22, align 4
  br label %97

97:                                               ; preds = %96, %83
  %98 = load i32, ptr %21, align 4
  %99 = icmp eq i32 %98, 2
  br i1 %99, label %106, label %100

100:                                              ; preds = %97
  %101 = load i32, ptr %21, align 4
  %102 = icmp eq i32 %101, 4
  br i1 %102, label %106, label %103

103:                                              ; preds = %100
  %104 = load i32, ptr %21, align 4
  %105 = icmp eq i32 %104, 5
  br i1 %105, label %106, label %111

106:                                              ; preds = %103, %100, %97
  %107 = load i32, ptr %22, align 4
  %108 = load i32, ptr %8, align 4
  %109 = icmp eq i32 %107, %108
  br i1 %109, label %110, label %111

110:                                              ; preds = %106
  store ptr null, ptr %20, align 8
  br label %116

111:                                              ; preds = %106, %103
  %112 = load ptr, ptr %17, align 8
  %113 = getelementptr inbounds nuw %struct.FormData_pg_proc, ptr %112, i32 0, i32 2
  %114 = load i32, ptr %113, align 4
  %115 = call ptr @get_namespace_name_or_temp(i32 noundef %114)
  store ptr %115, ptr %20, align 8
  br label %116

116:                                              ; preds = %111, %110
  %117 = load ptr, ptr %20, align 8
  %118 = load ptr, ptr %18, align 8
  %119 = call ptr @quote_qualified_identifier(ptr noundef %117, ptr noundef %118)
  store ptr %119, ptr %15, align 8
  %120 = load ptr, ptr %16, align 8
  call void @ReleaseSysCache(ptr noundef %120)
  %121 = load ptr, ptr %15, align 8
  call void @llvm.lifetime.end.p0(i64 1, ptr %28) #10
  call void @llvm.lifetime.end.p0(i64 8, ptr %27) #10
  call void @llvm.lifetime.end.p0(i64 4, ptr %26) #10
  call void @llvm.lifetime.end.p0(i64 4, ptr %25) #10
  call void @llvm.lifetime.end.p0(i64 1, ptr %24) #10
  call void @llvm.lifetime.end.p0(i64 4, ptr %23) #10
  call void @llvm.lifetime.end.p0(i64 4, ptr %22) #10
  call void @llvm.lifetime.end.p0(i64 4, ptr %21) #10
  call void @llvm.lifetime.end.p0(i64 8, ptr %20) #10
  call void @llvm.lifetime.end.p0(i64 1, ptr %19) #10
  call void @llvm.lifetime.end.p0(i64 8, ptr %18) #10
  call void @llvm.lifetime.end.p0(i64 8, ptr %17) #10
  call void @llvm.lifetime.end.p0(i64 8, ptr %16) #10
  call void @llvm.lifetime.end.p0(i64 8, ptr %15) #10
  ret ptr %121
}