; Function Attrs: nounwind uwtable
define internal fastcc ptr @generate_function_name(i32 noundef %0, i32 noundef %1, ptr noundef %2, ptr noundef %3, i1 noundef zeroext %4, ptr noundef writeonly captures(address_is_null) %5, i1 noundef zeroext %6) unnamed_addr #0 {
  %8 = alloca %struct.StringInfoData, align 8
  %9 = alloca i32, align 4
  %10 = alloca i32, align 4
  %11 = alloca i8, align 1
  %12 = alloca i32, align 4
  %13 = alloca i32, align 4
  %14 = alloca ptr, align 8
  %15 = zext i1 %4 to i8
  call void @llvm.lifetime.start.p0(i64 4, ptr nonnull %9) #11
  call void @llvm.lifetime.start.p0(i64 4, ptr nonnull %10) #11
  call void @llvm.lifetime.start.p0(i64 1, ptr nonnull %11) #11
  call void @llvm.lifetime.start.p0(i64 4, ptr nonnull %12) #11
  call void @llvm.lifetime.start.p0(i64 4, ptr nonnull %13) #11
  call void @llvm.lifetime.start.p0(i64 8, ptr nonnull %14) #11
  %16 = zext i32 %0 to i64
  %17 = tail call ptr @SearchSysCache1(i32 noundef 47, i64 noundef %16) #11
  %.not = icmp eq ptr %17, null
  br i1 %.not, label %18, label %21

18:                                               ; preds = %7
  %19 = tail call zeroext i1 @errstart_cold(i32 noundef 21, ptr noundef null) #12
  tail call void @llvm.assume(i1 %19)
  %20 = tail call i32 (ptr, ...) @errmsg_internal(ptr noundef nonnull @.str.539, i32 noundef %0) #11
  tail call void @errfinish(ptr noundef nonnull @.str.2, i32 noundef 13189, ptr noundef nonnull @__func__.generate_function_name) #11
  unreachable

21:                                               ; preds = %7
  %22 = getelementptr i8, ptr %17, i64 16
  %.val = load ptr, ptr %22, align 8
  %23 = getelementptr inbounds nuw i8, ptr %.val, i64 22
  %24 = load i8, ptr %23, align 2
  %25 = zext i8 %24 to i64
  %26 = getelementptr inbounds nuw i8, ptr %.val, i64 %25
  %27 = getelementptr inbounds nuw i8, ptr %26, i64 4
  br i1 %6, label %28, label %35

28:                                               ; preds = %21
  %29 = tail call i32 @strcmp(ptr noundef nonnull dereferenceable(1) %27, ptr noundef nonnull dereferenceable(5) @.str.540) #13
  %30 = icmp eq i32 %29, 0
  br i1 %30, label %34, label %31

31:                                               ; preds = %28
  %32 = tail call i32 @strcmp(ptr noundef nonnull dereferenceable(1) %27, ptr noundef nonnull dereferenceable(7) @.str.541) #13
  %33 = icmp eq i32 %32, 0
  br i1 %33, label %34, label %35

34:                                               ; preds = %31, %28
  br label %35

35:                                               ; preds = %31, %34, %21
  %.029 = phi i1 [ true, %34 ], [ false, %31 ], [ false, %21 ]
  %.not34 = icmp eq ptr %5, null
  br i1 %.not34, label %38, label %36

36:                                               ; preds = %35
  store i8 %15, ptr %5, align 1
  %37 = xor i1 %4, true
  br label %38

38:                                               ; preds = %35, %36
  %.0 = phi i1 [ %37, %36 ], [ true, %35 ]
  br i1 %.029, label %.thread, label %39

.thread:                                          ; preds = %38
  store i32 0, ptr %9, align 4
  br label %46

39:                                               ; preds = %38
  %40 = tail call ptr @makeString(ptr noundef nonnull %27) #11
  %41 = tail call ptr @list_make1_impl(i32 noundef 1, ptr %40) #11
  %42 = call i32 @func_get_detail(ptr noundef %41, ptr noundef null, ptr noundef %2, i32 noundef %1, ptr noundef %3, i1 noundef zeroext %.0, i1 noundef zeroext true, i1 noundef zeroext false, ptr noundef nonnull %9, ptr noundef nonnull %10, ptr noundef nonnull %11, ptr noundef nonnull %12, ptr noundef nonnull %13, ptr noundef nonnull %14, ptr noundef null) #11
  switch i32 %42, label %46 [
    i32 5, label %43
    i32 4, label %43
    i32 2, label %43
  ]

43:                                               ; preds = %39, %39, %39
  %44 = load i32, ptr %9, align 4
  %45 = icmp eq i32 %44, %0
  br i1 %45, label %.thread36, label %46

.thread36:                                        ; preds = %43
  call void @llvm.lifetime.start.p0(i64 24, ptr nonnull %8) #11
  call void @initStringInfo(ptr noundef nonnull %8) #11
  br label %quote_qualified_identifier.exit

46:                                               ; preds = %43, %39, %.thread
  %47 = getelementptr inbounds nuw i8, ptr %26, i64 68
  %48 = load i32, ptr %47, align 4
  %49 = call ptr @get_namespace_name_or_temp(i32 noundef %48) #11
  call void @llvm.lifetime.start.p0(i64 24, ptr nonnull %8) #11
  call void @initStringInfo(ptr noundef nonnull %8) #11
  %.not.i = icmp eq ptr %49, null
  br i1 %.not.i, label %quote_qualified_identifier.exit, label %50

50:                                               ; preds = %46
  %51 = call ptr @quote_identifier(ptr noundef nonnull %49)
  call void (ptr, ptr, ...) @appendStringInfo(ptr noundef nonnull %8, ptr noundef nonnull @.str.27, ptr noundef %51) #11
  br label %quote_qualified_identifier.exit

quote_qualified_identifier.exit:                  ; preds = %.thread36, %46, %50
  %52 = call ptr @quote_identifier(ptr noundef nonnull %27)
  call void @appendStringInfoString(ptr noundef nonnull %8, ptr noundef %52) #11
  %53 = load ptr, ptr %8, align 8
  call void @llvm.lifetime.end.p0(i64 24, ptr nonnull %8) #11
  call void @ReleaseSysCache(ptr noundef nonnull %17) #11
  call void @llvm.lifetime.end.p0(i64 8, ptr nonnull %14) #11
  call void @llvm.lifetime.end.p0(i64 4, ptr nonnull %13) #11
  call void @llvm.lifetime.end.p0(i64 4, ptr nonnull %12) #11
  call void @llvm.lifetime.end.p0(i64 1, ptr nonnull %11) #11
  call void @llvm.lifetime.end.p0(i64 4, ptr nonnull %10) #11
  call void @llvm.lifetime.end.p0(i64 4, ptr nonnull %9) #11
  ret ptr %53
}